target datalayout = "e-m:e-p270:32:32-p271:32:32-p272:64:64-i64:64-i128:128-f80:128-n8:16:32:64-S128"
target triple = "x86_64-pc-linux-gnu"

; Function Attrs: mustprogress uwtable
define noundef ptr @_ZN8Splitter12createHandleEv(ptr noundef nonnull align 8 dereferenceable(48) %0) unnamed_addr #5 align 2 personality ptr @__gxx_personality_v0 {
  %2 = alloca ptr, align 8
  %3 = alloca ptr, align 8
  %4 = alloca i32, align 4
  store ptr %0, ptr %2, align 8
  %5 = load ptr, ptr %2, align 8
  %6 = call noalias noundef nonnull ptr @_Znwm(i64 noundef 48) #16
  %7 = invoke noundef i32 @_ZNK9QSplitter11orientationEv(ptr noundef nonnull align 8 dereferenceable(48) %5)
          to label %8 unwind label %10

8:                                                ; preds = %1
  invoke void @_ZN15QSplitterHandleC1EN2Qt11OrientationEP9QSplitter(ptr noundef nonnull align 8 dereferenceable(48) %6, i32 noundef %7, ptr noundef %5)
          to label %9 unwind label %10

9:                                                ; preds = %8
  ret ptr %6

10:                                               ; preds = %8, %1
  %11 = landingpad { ptr, i32 }
          cleanup
  %12 = extractvalue { ptr, i32 } %11, 0
  store ptr %12, ptr %3, align 8
  %13 = extractvalue { ptr, i32 } %11, 1
  store i32 %13, ptr %4, align 4
  call void @_ZdlPv(ptr noundef %6) #17
  br label %14

14:                                               ; preds = %10
  %15 = load ptr, ptr %3, align 8
  %16 = load i32, ptr %4, align 4
  %17 = insertvalue { ptr, i32 } poison, ptr %15, 0
  %18 = insertvalue { ptr, i32 } %17, i32 %16, 1
  resume { ptr, i32 } %18
}