; Function Attrs: mustprogress uwtable
define noundef nonnull ptr @_ZN8Splitter12createHandleEv(ptr noundef nonnull align 8 dereferenceable(48) %0) unnamed_addr #9 align 2 personality ptr @__gxx_personality_v0 {
  %2 = tail call noalias noundef nonnull dereferenceable(48) ptr @_Znwm(i64 noundef 48) #22
  %3 = invoke noundef i32 @_ZNK9QSplitter11orientationEv(ptr noundef nonnull align 8 dereferenceable(48) %0)
          to label %4 unwind label %6

4:                                                ; preds = %1
  invoke void @_ZN15QSplitterHandleC1EN2Qt11OrientationEP9QSplitter(ptr noundef nonnull align 8 dereferenceable(48) %2, i32 noundef %3, ptr noundef nonnull %0)
          to label %5 unwind label %6

5:                                                ; preds = %4
  ret ptr %2

6:                                                ; preds = %4, %1
  %7 = landingpad { ptr, i32 }
          cleanup
  tail call void @_ZdlPv(ptr noundef nonnull %2) #18
  resume { ptr, i32 } %7
}